; Function Attrs: nounwind uwtable
define nonnull ptr @l_Lean_Environment_isProjectionFn___boxed(ptr noundef %0, ptr noundef %1) local_unnamed_addr #0 {
  %3 = load ptr, ptr @l_Lean_instInhabitedProjectionFunctionInfo, align 8, !tbaa !4
  %4 = load ptr, ptr @l_Lean_addProjectionFnInfo___closed__1, align 8, !tbaa !4
  %5 = tail call zeroext i8 @l_Lean_MapDeclarationExtension_contains___rarg(ptr noundef %3, ptr noundef %4, ptr noundef %0, ptr noundef %1) #3
  %6 = zext i8 %5 to i64
  %7 = shl nuw nsw i64 %6, 1
  %8 = or disjoint i64 %7, 1
  %9 = inttoptr i64 %8 to ptr
  ret ptr %9
}